target datalayout = "e-m:e-p270:32:32-p271:32:32-p272:64:64-i64:64-i128:128-f80:128-n8:16:32:64-S128"
target triple = "x86_64-pc-linux-gnu"

%struct.lua_State = type { %struct.GCRef, i8, i8, i8, i8, %struct.MRef, %struct.GCRef, ptr, ptr, %struct.MRef, %struct.MRef, %struct.GCRef, %struct.GCRef, ptr, i32 }
%struct.MRef = type { i64 }
%struct.GCRef = type { i64 }
%union.TValue = type { i64 }

; Function Attrs: alwaysinline nounwind uwtable
define internal void @setint64V(ptr noundef %0, i64 noundef %1) #4 {
  %3 = alloca ptr, align 8
  %4 = alloca i64, align 8
  store ptr %0, ptr %3, align 8, !tbaa !22
  store i64 %1, ptr %4, align 8, !tbaa !38
  %5 = load i64, ptr %4, align 8, !tbaa !38
  %6 = sitofp i64 %5 to double
  %7 = load ptr, ptr %3, align 8, !tbaa !22
  store double %6, ptr %7, align 8, !tbaa !26
  ret void
}

; Function Attrs: nounwind uwtable
define dso_local void @lua_pushinteger(ptr noundef %0, i64 noundef %1) #0 {
  %3 = alloca ptr, align 8
  %4 = alloca i64, align 8
  store ptr %0, ptr %3, align 8, !tbaa !4
  store i64 %1, ptr %4, align 8, !tbaa !38
  %5 = load ptr, ptr %3, align 8, !tbaa !4
  %6 = getelementptr inbounds nuw %struct.lua_State, ptr %5, i32 0, i32 8
  %7 = load ptr, ptr %6, align 8, !tbaa !17
  %8 = load i64, ptr %4, align 8, !tbaa !38
  call void @setint64V(ptr noundef %7, i64 noundef %8)
  %9 = load ptr, ptr %3, align 8, !tbaa !4
  %10 = getelementptr inbounds nuw %struct.lua_State, ptr %9, i32 0, i32 8
  %11 = load ptr, ptr %10, align 8, !tbaa !17
  %12 = getelementptr inbounds nuw %union.TValue, ptr %11, i32 1
  store ptr %12, ptr %10, align 8, !tbaa !17
  %13 = load ptr, ptr %3, align 8, !tbaa !4
  %14 = getelementptr inbounds nuw %struct.lua_State, ptr %13, i32 0, i32 9
  %15 = getelementptr inbounds nuw %struct.MRef, ptr %14, i32 0, i32 0
  %16 = load i64, ptr %15, align 8, !tbaa !19
  %17 = inttoptr i64 %16 to ptr
  %18 = icmp uge ptr %12, %17
  br i1 %18, label %19, label %21

19:                                               ; preds = %2
  %20 = load ptr, ptr %3, align 8, !tbaa !4
  call void @lj_state_growstack1(ptr noundef %20)
  br label %21

21:                                               ; preds = %19, %2
  ret void
}